; Function Attrs: mustprogress nounwind uwtable
define internal fastcc void @_ZNSt10unique_ptrIN7V3Sched12_GLOBAL__N_15GraphESt14default_deleteIS2_EED2Ev(ptr nocapture noundef nonnull align 8 dereferenceable(8) %0) unnamed_addr #4 align 2 personality ptr @__gxx_personality_v0 {
  %2 = load ptr, ptr %0, align 8
  %.not = icmp eq ptr %2, null
  br i1 %.not, label %3, label %_ZNKSt14default_deleteIN7V3Sched12_GLOBAL__N_15GraphEEclEPS2_.exit

_ZNKSt14default_deleteIN7V3Sched12_GLOBAL__N_15GraphEEclEPS2_.exit: ; preds = %1
  tail call void @_ZN7V3GraphD2Ev(ptr noundef nonnull align 8 dereferenceable(24) %2) #24
  tail call void @_ZdlPv(ptr noundef nonnull %2) #23
  br label %3

3:                                                ; preds = %_ZNKSt14default_deleteIN7V3Sched12_GLOBAL__N_15GraphEEclEPS2_.exit, %1
  store ptr null, ptr %0, align 8
  ret void
}